; Function Attrs: mustprogress nofree norecurse nosync nounwind willreturn memory(argmem: write) uwtable
define dso_local void @_ZN16ConvexVolumeToolC2Ev(ptr nocapture noundef nonnull writeonly align 8 dereferenceable(232) %0) unnamed_addr #0 align 2 {
  store ptr getelementptr inbounds ({ [14 x ptr] }, ptr @_ZTV16ConvexVolumeTool, i64 0, i32 0, i64 2), ptr %0, align 8
  %2 = getelementptr inbounds i8, ptr %0, i64 8
  store ptr null, ptr %2, align 8
  %3 = getelementptr inbounds i8, ptr %0, i64 16
  store i32 4, ptr %3, align 8
  %4 = getelementptr inbounds i8, ptr %0, i64 20
  store <2 x float> <float 0.000000e+00, float 6.000000e+00>, ptr %4, align 4
  %5 = getelementptr inbounds i8, ptr %0, i64 28
  store float 1.000000e+00, ptr %5, align 4
  %6 = getelementptr inbounds i8, ptr %0, i64 176
  store i32 0, ptr %6, align 8
  %7 = getelementptr inbounds i8, ptr %0, i64 228
  store i32 0, ptr %7, align 4
  ret void
}